; Function Attrs: mustprogress nofree norecurse nosync nounwind willreturn memory(read, inaccessiblemem: none) uwtable
define internal noundef zeroext i1 @"_ZNSt17_Function_handlerIFbP4exprEZN12seq_rewriter14mk_seq_extractES1_S1_S1_R7obj_refIS0_11ast_managerEE3$_0E9_M_invokeERKSt9_Any_dataOS1_"(ptr noundef nonnull readonly align 8 captures(none) dereferenceable(16) %0, ptr noundef nonnull readonly align 8 captures(none) dereferenceable(8) %1) #10 align 2 {
  %.val = load ptr, ptr %0, align 8, !tbaa !989
  %.val2 = load ptr, ptr %1, align 8, !tbaa !3
  %3 = getelementptr i8, ptr %.val, i64 48
  %.val.val = load i32, ptr %3, align 8, !tbaa !86
  %4 = getelementptr inbounds nuw i8, ptr %.val2, i64 4
  %5 = load i32, ptr %4, align 4
  %6 = and i32 %5, 65535
  %7 = icmp eq i32 %6, 0
  br i1 %7, label %8, label %"_ZSt10__invoke_rIbRZN12seq_rewriter14mk_seq_extractEP4exprS2_S2_R7obj_refIS1_11ast_managerEE3$_0JS2_EENSt9enable_ifIX16is_invocable_r_vIT_T0_DpT1_EESA_E4typeEOSB_DpOSC_.exit"

8:                                                ; preds = %2
  %9 = getelementptr inbounds nuw i8, ptr %.val2, i64 16
  %10 = load ptr, ptr %9, align 8, !tbaa !202
  %11 = getelementptr inbounds nuw i8, ptr %10, i64 24
  %12 = load ptr, ptr %11, align 8, !tbaa !207
  %.not.i.i.i.i.i.i.i = icmp eq ptr %12, null
  br i1 %.not.i.i.i.i.i.i.i, label %"_ZSt10__invoke_rIbRZN12seq_rewriter14mk_seq_extractEP4exprS2_S2_R7obj_refIS1_11ast_managerEE3$_0JS2_EENSt9enable_ifIX16is_invocable_r_vIT_T0_DpT1_EESA_E4typeEOSB_DpOSC_.exit", label %13

13:                                               ; preds = %8
  %14 = load i32, ptr %12, align 8, !tbaa !210
  %15 = icmp eq i32 %14, %.val.val
  %16 = getelementptr inbounds nuw i8, ptr %12, i64 4
  %17 = load i32, ptr %16, align 4
  %18 = icmp eq i32 %17, 0
  %19 = select i1 %15, i1 %18, i1 false
  br label %"_ZSt10__invoke_rIbRZN12seq_rewriter14mk_seq_extractEP4exprS2_S2_R7obj_refIS1_11ast_managerEE3$_0JS2_EENSt9enable_ifIX16is_invocable_r_vIT_T0_DpT1_EESA_E4typeEOSB_DpOSC_.exit"

"_ZSt10__invoke_rIbRZN12seq_rewriter14mk_seq_extractEP4exprS2_S2_R7obj_refIS1_11ast_managerEE3$_0JS2_EENSt9enable_ifIX16is_invocable_r_vIT_T0_DpT1_EESA_E4typeEOSB_DpOSC_.exit": ; preds = %2, %8, %13
  %20 = phi i1 [ false, %2 ], [ false, %8 ], [ %19, %13 ]
  ret i1 %20
}